; Function Attrs: nounwind uwtable
define internal ptr @H5O__cont_decode(ptr noundef %0, ptr readnone captures(none) %1, i32 %2, ptr readnone captures(none) %3, i64 noundef %4, ptr noundef %5) #0 {
  %7 = alloca ptr, align 8
  store ptr %5, ptr %7, align 8, !tbaa !3
  %8 = getelementptr inbounds nuw i8, ptr %5, i64 %4
  %9 = getelementptr inbounds i8, ptr %8, i64 -1
  %10 = load i8, ptr @H5O_init_g, align 1, !tbaa !8, !range !10, !noundef !11
  %11 = trunc nuw i8 %10 to i1
  %12 = load i8, ptr @H5_libterm_g, align 1, !range !10
  %13 = trunc nuw i8 %12 to i1
  %14 = xor i1 %13, true
  %15 = select i1 %11, i1 true, i1 %14
  br i1 %15, label %16, label %.thread, !prof !12

16:                                               ; preds = %6
  %17 = tail call noalias ptr @H5FL_reg_malloc(ptr noundef nonnull @H5_H5O_cont_t_reg_free_list) #4
  %18 = icmp eq ptr %17, null
  br i1 %18, label %19, label %23

19:                                               ; preds = %16
  %20 = load i64, ptr @H5E_OHDR_g, align 8, !tbaa !13
  %21 = load i64, ptr @H5E_NOSPACE_g, align 8, !tbaa !13
  %22 = tail call i32 (ptr, ptr, i32, i64, i64, ptr, ...) @H5E_printf_stack(ptr noundef nonnull @.str.2, ptr noundef nonnull @__func__.H5O__cont_decode, i32 noundef 93, i64 noundef %20, i64 noundef %21, ptr noundef nonnull @.str.3) #4
  br label %.thread

23:                                               ; preds = %16
  %24 = tail call zeroext i8 @H5F_sizeof_addr(ptr noundef %0) #4
  %.not = icmp eq i8 %24, 0
  br i1 %.not, label %41, label %25

25:                                               ; preds = %23
  %26 = icmp ugt ptr %5, %9
  br i1 %26, label %37, label %27

27:                                               ; preds = %25
  %28 = tail call zeroext i8 @H5F_sizeof_addr(ptr noundef %0) #4
  %29 = tail call zeroext i8 @H5F_sizeof_addr(ptr noundef %0) #4
  %30 = tail call zeroext i8 @H5F_sizeof_addr(ptr noundef %0) #4
  %31 = zext i8 %30 to i64
  %32 = ptrtoint ptr %9 to i64
  %33 = ptrtoint ptr %5 to i64
  %34 = add i64 %32, 1
  %35 = sub i64 %34, %33
  %36 = icmp ult i64 %35, %31
  br i1 %36, label %37, label %41

37:                                               ; preds = %25, %27
  %38 = load i64, ptr @H5E_OHDR_g, align 8, !tbaa !13
  %39 = load i64, ptr @H5E_OVERFLOW_g, align 8, !tbaa !13
  %40 = tail call i32 (ptr, ptr, i32, i64, i64, ptr, ...) @H5E_printf_stack(ptr noundef nonnull @.str.2, ptr noundef nonnull @__func__.H5O__cont_decode, i32 noundef 97, i64 noundef %38, i64 noundef %39, ptr noundef nonnull @.str.4) #4
  br label %107

41:                                               ; preds = %27, %23
  call void @H5F_addr_decode(ptr noundef %0, ptr noundef nonnull %7, ptr noundef nonnull %17) #4
  %42 = call zeroext i8 @H5F_sizeof_size(ptr noundef %0) #4
  %.not41 = icmp eq i8 %42, 0
  br i1 %.not41, label %61, label %43

43:                                               ; preds = %41
  %44 = load ptr, ptr %7, align 8, !tbaa !3
  %45 = icmp ugt ptr %44, %9
  br i1 %45, label %57, label %46

46:                                               ; preds = %43
  %47 = call zeroext i8 @H5F_sizeof_size(ptr noundef %0) #4
  %48 = call zeroext i8 @H5F_sizeof_size(ptr noundef %0) #4
  %49 = call zeroext i8 @H5F_sizeof_size(ptr noundef %0) #4
  %50 = zext i8 %49 to i64
  %51 = load ptr, ptr %7, align 8, !tbaa !3
  %52 = ptrtoint ptr %9 to i64
  %53 = ptrtoint ptr %51 to i64
  %54 = add i64 %52, 1
  %55 = sub i64 %54, %53
  %56 = icmp ult i64 %55, %50
  br i1 %56, label %57, label %61

57:                                               ; preds = %43, %46
  %58 = load i64, ptr @H5E_OHDR_g, align 8, !tbaa !13
  %59 = load i64, ptr @H5E_OVERFLOW_g, align 8, !tbaa !13
  %60 = call i32 (ptr, ptr, i32, i64, i64, ptr, ...) @H5E_printf_stack(ptr noundef nonnull @.str.2, ptr noundef nonnull @__func__.H5O__cont_decode, i32 noundef 101, i64 noundef %58, i64 noundef %59, ptr noundef nonnull @.str.4) #4
  br label %107

61:                                               ; preds = %41, %46
  %62 = call zeroext i8 @H5F_sizeof_size(ptr noundef %0) #4
  switch i8 %62, label %.loopexit [
    i8 4, label %63
    i8 8, label %83
    i8 2, label %96
  ]

63:                                               ; preds = %61
  %64 = load ptr, ptr %7, align 8, !tbaa !3
  %65 = load i8, ptr %64, align 1, !tbaa !15
  %66 = zext i8 %65 to i64
  %67 = getelementptr inbounds nuw i8, ptr %17, i64 8
  store i64 %66, ptr %67, align 8, !tbaa !16
  %68 = getelementptr inbounds nuw i8, ptr %64, i64 1
  store ptr %68, ptr %7, align 8, !tbaa !3
  %69 = load i8, ptr %68, align 1, !tbaa !15
  %70 = zext i8 %69 to i64
  %71 = shl nuw nsw i64 %70, 8
  %72 = or disjoint i64 %71, %66
  store i64 %72, ptr %67, align 8, !tbaa !16
  %73 = getelementptr inbounds nuw i8, ptr %64, i64 2
  store ptr %73, ptr %7, align 8, !tbaa !3
  %74 = load i8, ptr %73, align 1, !tbaa !15
  %75 = zext i8 %74 to i64
  %76 = shl nuw nsw i64 %75, 16
  %77 = or disjoint i64 %76, %72
  store i64 %77, ptr %67, align 8, !tbaa !16
  %78 = getelementptr inbounds nuw i8, ptr %64, i64 3
  store ptr %78, ptr %7, align 8, !tbaa !3
  %79 = load i8, ptr %78, align 1, !tbaa !15
  %80 = zext i8 %79 to i64
  %81 = shl nuw nsw i64 %80, 24
  %82 = or disjoint i64 %81, %77
  store i64 %82, ptr %67, align 8, !tbaa !16
  br label %.loopexit

83:                                               ; preds = %61
  %84 = getelementptr inbounds nuw i8, ptr %17, i64 8
  store i64 0, ptr %84, align 8, !tbaa !16
  %85 = load ptr, ptr %7, align 8, !tbaa !3
  %86 = getelementptr inbounds nuw i8, ptr %85, i64 8
  br label %87

87:                                               ; preds = %83, %87
  %.046 = phi i64 [ 0, %83 ], [ %95, %87 ]
  %88 = phi i64 [ 0, %83 ], [ %94, %87 ]
  %89 = phi ptr [ %86, %83 ], [ %91, %87 ]
  %90 = shl i64 %88, 8
  %91 = getelementptr inbounds i8, ptr %89, i64 -1
  store ptr %91, ptr %7, align 8, !tbaa !3
  %92 = load i8, ptr %91, align 1, !tbaa !15
  %93 = zext i8 %92 to i64
  %94 = or disjoint i64 %90, %93
  store i64 %94, ptr %84, align 8, !tbaa !16
  %95 = add nuw nsw i64 %.046, 1
  %exitcond.not = icmp eq i64 %95, 8
  br i1 %exitcond.not, label %.loopexit, label %87, !llvm.loop !19

96:                                               ; preds = %61
  %97 = load ptr, ptr %7, align 8, !tbaa !3
  %98 = load i8, ptr %97, align 1, !tbaa !15
  %99 = zext i8 %98 to i64
  %100 = getelementptr inbounds nuw i8, ptr %17, i64 8
  store i64 %99, ptr %100, align 8, !tbaa !16
  %101 = getelementptr inbounds nuw i8, ptr %97, i64 1
  store ptr %101, ptr %7, align 8, !tbaa !3
  %102 = load i8, ptr %101, align 1, !tbaa !15
  %103 = zext i8 %102 to i64
  %104 = shl nuw nsw i64 %103, 8
  %105 = or disjoint i64 %104, %99
  store i64 %105, ptr %100, align 8, !tbaa !16
  br label %.loopexit

.loopexit:                                        ; preds = %87, %61, %96, %63
  %106 = getelementptr inbounds nuw i8, ptr %17, i64 16
  store i32 0, ptr %106, align 8, !tbaa !21
  br label %.thread

107:                                              ; preds = %37, %57
  %108 = call ptr @H5FL_reg_free(ptr noundef nonnull @H5_H5O_cont_t_reg_free_list, ptr noundef nonnull %17) #4
  br label %.thread

.thread:                                          ; preds = %19, %.loopexit, %107, %6
  %.036 = phi ptr [ null, %107 ], [ null, %6 ], [ %17, %.loopexit ], [ null, %19 ]
  ret ptr %.036
}